	.file	"mmcpy.c"
	.text
.Ltext0:
	.globl	cpy_it
	.type	cpy_it, @function
cpy_it:
.LFB2:
	.file 1 "mmcpy.c"
	.loc 1 4 0
	.cfi_startproc
	pushl	%ebp
	.cfi_def_cfa_offset 8
	.cfi_offset 5, -8
	movl	%esp, %ebp
	.cfi_def_cfa_register 5
	subl	$24, %esp
	.loc 1 5 0
	movl	16(%ebp), %eax
	movl	%eax, 8(%esp)
	movl	12(%ebp), %eax
	movl	%eax, 4(%esp)
	movl	8(%ebp), %eax
	movl	%eax, (%esp)
	call	memcpy
	.loc 1 6 0
	leave
	.cfi_restore 5
	.cfi_def_cfa 4, 4
	ret
	.cfi_endproc
.LFE2:
	.size	cpy_it, .-cpy_it
	.section	.rodata
	.align 4
.LC0:
	.string	"12345600000000000000000000000000000000000000000000000000000000000"
	.zero	34
	.text
	.globl	main
	.type	main, @function
main:
.LFB3:
	.loc 1 8 0
	.cfi_startproc
	pushl	%ebp
	.cfi_def_cfa_offset 8
	.cfi_offset 5, -8
	movl	%esp, %ebp
	.cfi_def_cfa_register 5
	pushl	%edi
	pushl	%esi
	andl	$-16, %esp
	subl	$224, %esp
	.cfi_offset 7, -12
	.cfi_offset 6, -16
	.loc 1 8 0
	movl	%gs:20, %eax
	movl	%eax, 220(%esp)
	xorl	%eax, %eax
	.loc 1 10 0
	leal	20(%esp), %edx
	movl	$.LC0, %eax
	movl	$16, %ecx
	movl	%edx, %edi
	movl	%eax, %esi
	rep movsl
	movl	%esi, %eax
	movl	%edi, %edx
	movzwl	(%eax), %ecx
	movw	%cx, (%edx)
	addl	$2, %edx
	addl	$2, %eax
	leal	86(%esp), %edx
	movl	$0, %eax
	movw	%ax, (%edx)
	addl	$2, %edx
	movl	$8, %ecx
	movl	%edx, %edi
	rep stosl
	.loc 1 12 0
	movw	$49, 18(%esp)
	.loc 1 13 0
	movl	$100, 8(%esp)
	leal	20(%esp), %eax
	movl	%eax, 4(%esp)
	leal	120(%esp), %eax
	movl	%eax, (%esp)
	call	cpy_it
	.loc 1 14 0
	movl	$1000, 8(%esp)
	leal	120(%esp), %eax
	movl	%eax, 4(%esp)
	leal	18(%esp), %eax
	movl	%eax, (%esp)
	call	cpy_it
	.loc 1 15 0
	movl	220(%esp), %eax
	xorl	%gs:20, %eax
	je	.L3
	call	__stack_chk_fail
.L3:
	leal	-8(%ebp), %esp
	popl	%esi
	.cfi_restore 6
	popl	%edi
	.cfi_restore 7
	popl	%ebp
	.cfi_restore 5
	.cfi_def_cfa 4, 4
	ret
	.cfi_endproc
.LFE3:
	.size	main, .-main
.Letext0:
	.file 2 "<built-in>"
	.section	.note.GNU-stack,"",@progbits
